target datalayout = "e-m:e-p270:32:32-p271:32:32-p272:64:64-i64:64-i128:128-f80:128-n8:16:32:64-S128"
target triple = "x86_64-pc-linux-gnu"

%"struct.cv::mcc::DetectorParameters" = type <{ i32, i32, i32, [4 x i8], double, double, double, double, double, double, i32, float, float, i32, i32, i32, i32, i32, i32, [4 x i8] }>

; Function Attrs: mustprogress nounwind uwtable
define void @_ZN2cv3mcc18DetectorParametersC2Ev(ptr noundef nonnull align 8 dereferenceable(100) %0) unnamed_addr #0 align 2 {
  %2 = alloca ptr, align 8
  store ptr %0, ptr %2, align 8, !tbaa !3
  %3 = load ptr, ptr %2, align 8
  %4 = getelementptr inbounds nuw %"struct.cv::mcc::DetectorParameters", ptr %3, i32 0, i32 0
  store i32 23, ptr %4, align 8, !tbaa !8
  %5 = getelementptr inbounds nuw %"struct.cv::mcc::DetectorParameters", ptr %3, i32 0, i32 1
  store i32 153, ptr %5, align 4, !tbaa !13
  %6 = getelementptr inbounds nuw %"struct.cv::mcc::DetectorParameters", ptr %3, i32 0, i32 2
  store i32 16, ptr %6, align 8, !tbaa !14
  %7 = getelementptr inbounds nuw %"struct.cv::mcc::DetectorParameters", ptr %3, i32 0, i32 4
  store double 7.000000e+00, ptr %7, align 8, !tbaa !15
  %8 = getelementptr inbounds nuw %"struct.cv::mcc::DetectorParameters", ptr %3, i32 0, i32 5
  store double 3.000000e-03, ptr %8, align 8, !tbaa !16
  %9 = getelementptr inbounds nuw %"struct.cv::mcc::DetectorParameters", ptr %3, i32 0, i32 6
  store double 1.000000e+02, ptr %9, align 8, !tbaa !17
  %10 = getelementptr inbounds nuw %"struct.cv::mcc::DetectorParameters", ptr %3, i32 0, i32 7
  store double 5.000000e-01, ptr %10, align 8, !tbaa !18
  %11 = getelementptr inbounds nuw %"struct.cv::mcc::DetectorParameters", ptr %3, i32 0, i32 8
  store double 9.000000e-01, ptr %11, align 8, !tbaa !19
  %12 = getelementptr inbounds nuw %"struct.cv::mcc::DetectorParameters", ptr %3, i32 0, i32 9
  store double 5.000000e-02, ptr %12, align 8, !tbaa !20
  %13 = getelementptr inbounds nuw %"struct.cv::mcc::DetectorParameters", ptr %3, i32 0, i32 10
  store i32 0, ptr %13, align 8, !tbaa !21
  %14 = getelementptr inbounds nuw %"struct.cv::mcc::DetectorParameters", ptr %3, i32 0, i32 11
  store float 1.250000e+00, ptr %14, align 4, !tbaa !22
  %15 = getelementptr inbounds nuw %"struct.cv::mcc::DetectorParameters", ptr %3, i32 0, i32 12
  store float 0x3FB99999A0000000, ptr %15, align 8, !tbaa !23
  %16 = getelementptr inbounds nuw %"struct.cv::mcc::DetectorParameters", ptr %3, i32 0, i32 13
  store i32 4, ptr %16, align 4, !tbaa !24
  %17 = getelementptr inbounds nuw %"struct.cv::mcc::DetectorParameters", ptr %3, i32 0, i32 14
  store i32 100, ptr %17, align 8, !tbaa !25
  %18 = getelementptr inbounds nuw %"struct.cv::mcc::DetectorParameters", ptr %3, i32 0, i32 15
  store i32 100, ptr %18, align 4, !tbaa !26
  %19 = getelementptr inbounds nuw %"struct.cv::mcc::DetectorParameters", ptr %3, i32 0, i32 16
  store i32 10000, ptr %19, align 8, !tbaa !27
  %20 = getelementptr inbounds nuw %"struct.cv::mcc::DetectorParameters", ptr %3, i32 0, i32 17
  store i32 1000, ptr %20, align 4, !tbaa !28
  %21 = getelementptr inbounds nuw %"struct.cv::mcc::DetectorParameters", ptr %3, i32 0, i32 18
  store i32 4, ptr %21, align 8, !tbaa !29
  ret void
}