; Function Attrs: mustprogress nofree norecurse nosync nounwind willreturn memory(argmem: write) uwtable
define void @_ZN2cv3mcc18DetectorParametersC2Ev(ptr noundef nonnull writeonly align 8 captures(none) dereferenceable(100) initializes((0, 12), (16, 100)) %0) unnamed_addr #0 align 2 {
  store i32 23, ptr %0, align 8, !tbaa !3
  %2 = getelementptr inbounds nuw i8, ptr %0, i64 4
  store i32 153, ptr %2, align 4, !tbaa !10
  %3 = getelementptr inbounds nuw i8, ptr %0, i64 8
  store i32 16, ptr %3, align 8, !tbaa !11
  %4 = getelementptr inbounds nuw i8, ptr %0, i64 16
  store double 7.000000e+00, ptr %4, align 8, !tbaa !12
  %5 = getelementptr inbounds nuw i8, ptr %0, i64 24
  store double 3.000000e-03, ptr %5, align 8, !tbaa !13
  %6 = getelementptr inbounds nuw i8, ptr %0, i64 32
  store double 1.000000e+02, ptr %6, align 8, !tbaa !14
  %7 = getelementptr inbounds nuw i8, ptr %0, i64 40
  store double 5.000000e-01, ptr %7, align 8, !tbaa !15
  %8 = getelementptr inbounds nuw i8, ptr %0, i64 48
  store double 9.000000e-01, ptr %8, align 8, !tbaa !16
  %9 = getelementptr inbounds nuw i8, ptr %0, i64 56
  store double 5.000000e-02, ptr %9, align 8, !tbaa !17
  %10 = getelementptr inbounds nuw i8, ptr %0, i64 64
  store i32 0, ptr %10, align 8, !tbaa !18
  %11 = getelementptr inbounds nuw i8, ptr %0, i64 68
  store float 1.250000e+00, ptr %11, align 4, !tbaa !19
  %12 = getelementptr inbounds nuw i8, ptr %0, i64 72
  store float 0x3FB99999A0000000, ptr %12, align 8, !tbaa !20
  %13 = getelementptr inbounds nuw i8, ptr %0, i64 76
  store i32 4, ptr %13, align 4, !tbaa !21
  %14 = getelementptr inbounds nuw i8, ptr %0, i64 80
  store i32 100, ptr %14, align 8, !tbaa !22
  %15 = getelementptr inbounds nuw i8, ptr %0, i64 84
  store i32 100, ptr %15, align 4, !tbaa !23
  %16 = getelementptr inbounds nuw i8, ptr %0, i64 88
  store i32 10000, ptr %16, align 8, !tbaa !24
  %17 = getelementptr inbounds nuw i8, ptr %0, i64 92
  store i32 1000, ptr %17, align 4, !tbaa !25
  %18 = getelementptr inbounds nuw i8, ptr %0, i64 96
  store i32 4, ptr %18, align 8, !tbaa !26
  ret void
}